target datalayout = "e-m:e-p270:32:32-p271:32:32-p272:64:64-i64:64-i128:128-f80:128-n8:16:32:64-S128"
target triple = "x86_64-pc-linux-gnu"

%struct.AVFilterContext = type { ptr, ptr, ptr, ptr, ptr, i32, ptr, ptr, i32, ptr, ptr, i32, i32, ptr, ptr, ptr, ptr, i32, ptr, i32, i32 }
%struct.GrayWorldContext = type { ptr, ptr, ptr }
%struct.AVFilterLink = type { ptr, ptr, ptr, ptr, i32, i32, i32, i32, %struct.AVRational, i32, i32, i32, %struct.AVChannelLayout, %struct.AVRational, ptr, i32, %struct.AVFilterFormatsConfig, %struct.AVFilterFormatsConfig }
%struct.AVChannelLayout = type { i32, i32, %union.anon.1, ptr }
%union.anon.1 = type { i64 }
%struct.AVRational = type { i32, i32 }
%struct.AVFilterFormatsConfig = type { ptr, ptr, ptr, ptr, ptr }

; Function Attrs: nounwind uwtable
define internal i32 @config_input(ptr noundef %0) #1 {
  %2 = alloca i32, align 4
  %3 = alloca ptr, align 8
  %4 = alloca ptr, align 8
  %5 = alloca i32, align 4
  store ptr %0, ptr %3, align 8, !tbaa !24
  call void @llvm.lifetime.start.p0(i64 8, ptr %4) #6
  %6 = load ptr, ptr %3, align 8, !tbaa !24
  %7 = getelementptr inbounds nuw %struct.AVFilterLink, ptr %6, i32 0, i32 2
  %8 = load ptr, ptr %7, align 8, !tbaa !28
  %9 = getelementptr inbounds nuw %struct.AVFilterContext, ptr %8, i32 0, i32 9
  %10 = load ptr, ptr %9, align 8, !tbaa !9
  store ptr %10, ptr %4, align 8, !tbaa !22
  %11 = load ptr, ptr %3, align 8, !tbaa !24
  %12 = getelementptr inbounds nuw %struct.AVFilterLink, ptr %11, i32 0, i32 7
  %13 = load i32, ptr %12, align 4, !tbaa !38
  %14 = load ptr, ptr %3, align 8, !tbaa !24
  %15 = getelementptr inbounds nuw %struct.AVFilterLink, ptr %14, i32 0, i32 6
  %16 = load i32, ptr %15, align 8, !tbaa !37
  %17 = mul nsw i32 %13, %16
  %18 = mul nsw i32 %17, 3
  %19 = sext i32 %18 to i64
  %20 = call ptr @av_malloc_array(i64 noundef %19, i64 noundef 4)
  %21 = load ptr, ptr %4, align 8, !tbaa !22
  %22 = getelementptr inbounds nuw %struct.GrayWorldContext, ptr %21, i32 0, i32 0
  store ptr %20, ptr %22, align 8, !tbaa !51
  %23 = load ptr, ptr %3, align 8, !tbaa !24
  %24 = getelementptr inbounds nuw %struct.AVFilterLink, ptr %23, i32 0, i32 7
  %25 = load i32, ptr %24, align 4, !tbaa !38
  %26 = sext i32 %25 to i64
  %27 = call ptr @av_malloc_array(i64 noundef %26, i64 noundef 4)
  %28 = load ptr, ptr %4, align 8, !tbaa !22
  %29 = getelementptr inbounds nuw %struct.GrayWorldContext, ptr %28, i32 0, i32 1
  store ptr %27, ptr %29, align 8, !tbaa !55
  %30 = load ptr, ptr %3, align 8, !tbaa !24
  %31 = getelementptr inbounds nuw %struct.AVFilterLink, ptr %30, i32 0, i32 7
  %32 = load i32, ptr %31, align 4, !tbaa !38
  %33 = mul nsw i32 %32, 2
  %34 = sext i32 %33 to i64
  %35 = call ptr @av_malloc_array(i64 noundef %34, i64 noundef 4)
  %36 = load ptr, ptr %4, align 8, !tbaa !22
  %37 = getelementptr inbounds nuw %struct.GrayWorldContext, ptr %36, i32 0, i32 2
  store ptr %35, ptr %37, align 8, !tbaa !56
  %38 = load ptr, ptr %4, align 8, !tbaa !22
  %39 = getelementptr inbounds nuw %struct.GrayWorldContext, ptr %38, i32 0, i32 0
  %40 = load ptr, ptr %39, align 8, !tbaa !51
  %41 = icmp ne ptr %40, null
  br i1 %41, label %42, label %52

42:                                               ; preds = %1
  %43 = load ptr, ptr %4, align 8, !tbaa !22
  %44 = getelementptr inbounds nuw %struct.GrayWorldContext, ptr %43, i32 0, i32 1
  %45 = load ptr, ptr %44, align 8, !tbaa !55
  %46 = icmp ne ptr %45, null
  br i1 %46, label %47, label %52

47:                                               ; preds = %42
  %48 = load ptr, ptr %4, align 8, !tbaa !22
  %49 = getelementptr inbounds nuw %struct.GrayWorldContext, ptr %48, i32 0, i32 2
  %50 = load ptr, ptr %49, align 8, !tbaa !56
  %51 = icmp ne ptr %50, null
  br i1 %51, label %53, label %52

52:                                               ; preds = %47, %42, %1
  store i32 -12, ptr %2, align 4
  store i32 1, ptr %5, align 4
  br label %54

53:                                               ; preds = %47
  store i32 0, ptr %2, align 4
  store i32 1, ptr %5, align 4
  br label %54

54:                                               ; preds = %53, %52
  call void @llvm.lifetime.end.p0(i64 8, ptr %4) #6
  %55 = load i32, ptr %2, align 4
  ret i32 %55
}