; Function Attrs: nounwind uwtable
define internal range(i32 -12, 1) i32 @config_input(ptr noundef readonly captures(none) %0) #1 {
  %2 = getelementptr inbounds nuw i8, ptr %0, i64 16
  %3 = load ptr, ptr %2, align 8, !tbaa !22
  %4 = getelementptr inbounds nuw i8, ptr %3, i64 72
  %5 = load ptr, ptr %4, align 8, !tbaa !4
  %6 = getelementptr inbounds nuw i8, ptr %0, i64 44
  %7 = load i32, ptr %6, align 4, !tbaa !35
  %8 = getelementptr inbounds nuw i8, ptr %0, i64 40
  %9 = load i32, ptr %8, align 8, !tbaa !34
  %10 = mul i32 %7, 3
  %11 = mul i32 %10, %9
  %12 = sext i32 %11 to i64
  %13 = tail call ptr @av_malloc_array(i64 noundef %12, i64 noundef 4) #8
  store ptr %13, ptr %5, align 8, !tbaa !59
  %14 = load i32, ptr %6, align 4, !tbaa !35
  %15 = sext i32 %14 to i64
  %16 = tail call ptr @av_malloc_array(i64 noundef %15, i64 noundef 4) #8
  %17 = getelementptr inbounds nuw i8, ptr %5, i64 8
  store ptr %16, ptr %17, align 8, !tbaa !51
  %18 = load i32, ptr %6, align 4, !tbaa !35
  %19 = shl nsw i32 %18, 1
  %20 = sext i32 %19 to i64
  %21 = tail call ptr @av_malloc_array(i64 noundef %20, i64 noundef 4) #8
  %22 = getelementptr inbounds nuw i8, ptr %5, i64 16
  store ptr %21, ptr %22, align 8, !tbaa !47
  %23 = load ptr, ptr %5, align 8, !tbaa !59
  %.not = icmp eq ptr %23, null
  br i1 %.not, label %26, label %24

24:                                               ; preds = %1
  %25 = load ptr, ptr %17, align 8, !tbaa !51
  %.not11 = icmp eq ptr %25, null
  %.not12 = icmp eq ptr %21, null
  %or.cond = select i1 %.not11, i1 true, i1 %.not12
  %spec.select = select i1 %or.cond, i32 -12, i32 0
  br label %26

26:                                               ; preds = %24, %1
  %.0 = phi i32 [ -12, %1 ], [ %spec.select, %24 ]
  ret i32 %.0
}